target datalayout = "e-m:e-p270:32:32-p271:32:32-p272:64:64-i64:64-i128:128-f80:128-n8:16:32:64-S128"
target triple = "x86_64-pc-linux-gnu"

%"class.cv::tinyxml2::StrPair" = type { i32, ptr, ptr }
%"class.cv::tinyxml2::XMLAttribute" = type { ptr, %"class.cv::tinyxml2::StrPair", %"class.cv::tinyxml2::StrPair", ptr, ptr }

@.str = private unnamed_addr constant [3 x i8] c"%d\00", align 1
@.str.4 = private unnamed_addr constant [5 x i8] c"true\00", align 1
@.str.5 = private unnamed_addr constant [6 x i8] c"false\00", align 1

; Function Attrs: inlinehint mustprogress nounwind uwtable
define linkonce_odr hidden noundef zeroext i1 @_ZN2cv8tinyxml27XMLUtil11StringEqualEPKcS3_i(ptr noundef %0, ptr noundef %1, i32 noundef %2) #8 comdat align 2 {
  %4 = alloca i1, align 1
  %5 = alloca ptr, align 8
  %6 = alloca ptr, align 8
  %7 = alloca i32, align 4
  %8 = alloca i32, align 4
  %9 = alloca i32, align 4
  store ptr %0, ptr %5, align 8, !tbaa !14
  store ptr %1, ptr %6, align 8, !tbaa !14
  store i32 %2, ptr %7, align 4, !tbaa !15
  call void @llvm.lifetime.start.p0(i64 4, ptr %8) #17
  store i32 0, ptr %8, align 4, !tbaa !15
  %10 = load ptr, ptr %5, align 8, !tbaa !14
  %11 = load ptr, ptr %6, align 8, !tbaa !14
  %12 = icmp eq ptr %10, %11
  br i1 %12, label %13, label %14

13:                                               ; preds = %3
  store i1 true, ptr %4, align 1
  store i32 1, ptr %9, align 4
  br label %60

14:                                               ; preds = %3
  br label %15

15:                                               ; preds = %37, %14
  %16 = load ptr, ptr %5, align 8, !tbaa !14
  %17 = load i8, ptr %16, align 1, !tbaa !18
  %18 = icmp ne i8 %17, 0
  br i1 %18, label %19, label %35

19:                                               ; preds = %15
  %20 = load ptr, ptr %6, align 8, !tbaa !14
  %21 = load i8, ptr %20, align 1, !tbaa !18
  %22 = icmp ne i8 %21, 0
  br i1 %22, label %23, label %35

23:                                               ; preds = %19
  %24 = load ptr, ptr %5, align 8, !tbaa !14
  %25 = load i8, ptr %24, align 1, !tbaa !18
  %26 = sext i8 %25 to i32
  %27 = load ptr, ptr %6, align 8, !tbaa !14
  %28 = load i8, ptr %27, align 1, !tbaa !18
  %29 = sext i8 %28 to i32
  %30 = icmp eq i32 %26, %29
  br i1 %30, label %31, label %35

31:                                               ; preds = %23
  %32 = load i32, ptr %8, align 4, !tbaa !15
  %33 = load i32, ptr %7, align 4, !tbaa !15
  %34 = icmp slt i32 %32, %33
  br label %35

35:                                               ; preds = %31, %23, %19, %15
  %36 = phi i1 [ false, %23 ], [ false, %19 ], [ false, %15 ], [ %34, %31 ]
  br i1 %36, label %37, label %44

37:                                               ; preds = %35
  %38 = load ptr, ptr %5, align 8, !tbaa !14
  %39 = getelementptr inbounds nuw i8, ptr %38, i32 1
  store ptr %39, ptr %5, align 8, !tbaa !14
  %40 = load ptr, ptr %6, align 8, !tbaa !14
  %41 = getelementptr inbounds nuw i8, ptr %40, i32 1
  store ptr %41, ptr %6, align 8, !tbaa !14
  %42 = load i32, ptr %8, align 4, !tbaa !15
  %43 = add nsw i32 %42, 1
  store i32 %43, ptr %8, align 4, !tbaa !15
  br label %15, !llvm.loop !45

44:                                               ; preds = %35
  %45 = load i32, ptr %8, align 4, !tbaa !15
  %46 = load i32, ptr %7, align 4, !tbaa !15
  %47 = icmp eq i32 %45, %46
  br i1 %47, label %58, label %48

48:                                               ; preds = %44
  %49 = load ptr, ptr %5, align 8, !tbaa !14
  %50 = load i8, ptr %49, align 1, !tbaa !18
  %51 = sext i8 %50 to i32
  %52 = icmp eq i32 %51, 0
  br i1 %52, label %53, label %59

53:                                               ; preds = %48
  %54 = load ptr, ptr %6, align 8, !tbaa !14
  %55 = load i8, ptr %54, align 1, !tbaa !18
  %56 = sext i8 %55 to i32
  %57 = icmp eq i32 %56, 0
  br i1 %57, label %58, label %59

58:                                               ; preds = %53, %44
  store i1 true, ptr %4, align 1
  store i32 1, ptr %9, align 4
  br label %60

59:                                               ; preds = %53, %48
  store i1 false, ptr %4, align 1
  store i32 1, ptr %9, align 4
  br label %60

60:                                               ; preds = %59, %58, %13
  call void @llvm.lifetime.end.p0(i64 4, ptr %8) #17
  %61 = load i1, ptr %4, align 1
  ret i1 %61
}

; Function Attrs: mustprogress nounwind uwtable
define hidden noundef zeroext i1 @_ZN2cv8tinyxml27XMLUtil5ToIntEPKcPi(ptr noundef %0, ptr noundef %1) #0 align 2 {
  %3 = alloca i1, align 1
  %4 = alloca ptr, align 8
  %5 = alloca ptr, align 8
  store ptr %0, ptr %4, align 8, !tbaa !14
  store ptr %1, ptr %5, align 8, !tbaa !31
  %6 = load ptr, ptr %4, align 8, !tbaa !14
  %7 = load ptr, ptr %5, align 8, !tbaa !31
  %8 = call i32 (ptr, ptr, ...) @__isoc99_sscanf(ptr noundef %6, ptr noundef @.str, ptr noundef %7) #17
  %9 = icmp eq i32 %8, 1
  br i1 %9, label %10, label %11

10:                                               ; preds = %2
  store i1 true, ptr %3, align 1
  br label %12

11:                                               ; preds = %2
  store i1 false, ptr %3, align 1
  br label %12

12:                                               ; preds = %11, %10
  %13 = load i1, ptr %3, align 1
  ret i1 %13
}

; Function Attrs: mustprogress uwtable
define hidden noundef zeroext i1 @_ZN2cv8tinyxml27XMLUtil6ToBoolEPKcPb(ptr noundef %0, ptr noundef %1) #3 align 2 {
  %3 = alloca i1, align 1
  %4 = alloca ptr, align 8
  %5 = alloca ptr, align 8
  %6 = alloca i32, align 4
  %7 = alloca i32, align 4
  store ptr %0, ptr %4, align 8, !tbaa !14
  store ptr %1, ptr %5, align 8, !tbaa !35
  call void @llvm.lifetime.start.p0(i64 4, ptr %6) #17
  store i32 0, ptr %6, align 4, !tbaa !15
  %8 = load ptr, ptr %4, align 8, !tbaa !14
  %9 = call noundef zeroext i1 @_ZN2cv8tinyxml27XMLUtil5ToIntEPKcPi(ptr noundef %8, ptr noundef %6)
  br i1 %9, label %10, label %16

10:                                               ; preds = %2
  %11 = load i32, ptr %6, align 4, !tbaa !15
  %12 = icmp eq i32 %11, 0
  %13 = select i1 %12, i1 false, i1 true
  %14 = load ptr, ptr %5, align 8, !tbaa !35
  %15 = zext i1 %13 to i8
  store i8 %15, ptr %14, align 1, !tbaa !37
  store i1 true, ptr %3, align 1
  store i32 1, ptr %7, align 4
  br label %28

16:                                               ; preds = %2
  %17 = load ptr, ptr %4, align 8, !tbaa !14
  %18 = call noundef zeroext i1 @_ZN2cv8tinyxml27XMLUtil11StringEqualEPKcS3_i(ptr noundef %17, ptr noundef @.str.4, i32 noundef 2147483647)
  br i1 %18, label %19, label %21

19:                                               ; preds = %16
  %20 = load ptr, ptr %5, align 8, !tbaa !35
  store i8 1, ptr %20, align 1, !tbaa !37
  store i1 true, ptr %3, align 1
  store i32 1, ptr %7, align 4
  br label %28

21:                                               ; preds = %16
  %22 = load ptr, ptr %4, align 8, !tbaa !14
  %23 = call noundef zeroext i1 @_ZN2cv8tinyxml27XMLUtil11StringEqualEPKcS3_i(ptr noundef %22, ptr noundef @.str.5, i32 noundef 2147483647)
  br i1 %23, label %24, label %26

24:                                               ; preds = %21
  %25 = load ptr, ptr %5, align 8, !tbaa !35
  store i8 0, ptr %25, align 1, !tbaa !37
  store i1 true, ptr %3, align 1
  store i32 1, ptr %7, align 4
  br label %28

26:                                               ; preds = %21
  br label %27

27:                                               ; preds = %26
  store i1 false, ptr %3, align 1
  store i32 1, ptr %7, align 4
  br label %28

28:                                               ; preds = %27, %24, %19, %10
  call void @llvm.lifetime.end.p0(i64 4, ptr %6) #17
  %29 = load i1, ptr %3, align 1
  ret i1 %29
}

; Function Attrs: mustprogress uwtable
define hidden noundef ptr @_ZNK2cv8tinyxml212XMLAttribute5ValueEv(ptr noundef nonnull align 8 dereferenceable(72) %0) #3 align 2 {
  %2 = alloca ptr, align 8
  store ptr %0, ptr %2, align 8, !tbaa !151
  %3 = load ptr, ptr %2, align 8
  %4 = getelementptr inbounds nuw %"class.cv::tinyxml2::XMLAttribute", ptr %3, i32 0, i32 2
  %5 = call noundef ptr @_ZN2cv8tinyxml27StrPair6GetStrEv(ptr noundef nonnull align 8 dereferenceable(24) %4)
  ret ptr %5
}

; Function Attrs: mustprogress uwtable
define hidden noundef i32 @_ZNK2cv8tinyxml212XMLAttribute14QueryBoolValueEPb(ptr noundef nonnull align 8 dereferenceable(72) %0, ptr noundef %1) #3 align 2 {
  %3 = alloca i32, align 4
  %4 = alloca ptr, align 8
  %5 = alloca ptr, align 8
  store ptr %0, ptr %4, align 8, !tbaa !151
  store ptr %1, ptr %5, align 8, !tbaa !35
  %6 = load ptr, ptr %4, align 8
  %7 = call noundef ptr @_ZNK2cv8tinyxml212XMLAttribute5ValueEv(ptr noundef nonnull align 8 dereferenceable(72) %6)
  %8 = load ptr, ptr %5, align 8, !tbaa !35
  %9 = call noundef zeroext i1 @_ZN2cv8tinyxml27XMLUtil6ToBoolEPKcPb(ptr noundef %7, ptr noundef %8)
  br i1 %9, label %10, label %11

10:                                               ; preds = %2
  store i32 0, ptr %3, align 4
  br label %12

11:                                               ; preds = %2
  store i32 2, ptr %3, align 4
  br label %12

12:                                               ; preds = %11, %10
  %13 = load i32, ptr %3, align 4
  ret i32 %13
}