; Function Attrs: mustprogress nofree nounwind uwtable
define hidden noundef range(i32 0, 3) i32 @_ZNK2cv8tinyxml212XMLAttribute14QueryBoolValueEPb(ptr noundef nonnull align 8 captures(none) dereferenceable(72) %0, ptr noundef writeonly captures(none) %1) local_unnamed_addr #13 align 2 {
  %3 = alloca i32, align 4
  %4 = getelementptr inbounds nuw i8, ptr %0, i64 32
  %5 = tail call noundef ptr @_ZN2cv8tinyxml27StrPair6GetStrEv(ptr noundef nonnull align 8 dereferenceable(24) %4)
  call void @llvm.lifetime.start.p0(i64 4, ptr nonnull %3) #24
  store i32 0, ptr %3, align 4, !tbaa !18
  %6 = call i32 (ptr, ptr, ...) @__isoc99_sscanf(ptr noundef readonly %5, ptr noundef nonnull @.str, ptr noundef nonnull %3) #24
  %7 = icmp eq i32 %6, 1
  br i1 %7, label %8, label %12

8:                                                ; preds = %2
  %9 = load i32, ptr %3, align 4, !tbaa !18
  %10 = icmp ne i32 %9, 0
  %11 = zext i1 %10 to i8
  br label %42

12:                                               ; preds = %2
  %13 = icmp eq ptr %5, @.str.4
  br i1 %13, label %42, label %.preheader.i.i

.preheader.i.i:                                   ; preds = %12
  %14 = load i8, ptr %5, align 1, !tbaa !12
  %.not26.i.i = icmp eq i8 %14, 0
  br i1 %.not26.i.i, label %.critedge.i.thread.i, label %.lr.ph.i.i

.lr.ph.i.i:                                       ; preds = %.preheader.i.i, %19
  %15 = phi i8 [ %23, %19 ], [ %14, %.preheader.i.i ]
  %.029.i.i = phi i32 [ %22, %19 ], [ 0, %.preheader.i.i ]
  %.01628.i.i = phi ptr [ %21, %19 ], [ @.str.4, %.preheader.i.i ]
  %.01727.i.i = phi ptr [ %20, %19 ], [ %5, %.preheader.i.i ]
  %16 = load i8, ptr %.01628.i.i, align 1, !tbaa !12
  %17 = icmp eq i8 %15, %16
  %18 = icmp ne i32 %.029.i.i, 2147483647
  %or.cond23.i.i = select i1 %17, i1 %18, i1 false
  br i1 %or.cond23.i.i, label %19, label %.critedge.thread.i.i

19:                                               ; preds = %.lr.ph.i.i
  %20 = getelementptr inbounds nuw i8, ptr %.01727.i.i, i64 1
  %21 = getelementptr inbounds nuw i8, ptr %.01628.i.i, i64 1
  %22 = add nuw nsw i32 %.029.i.i, 1
  %23 = load i8, ptr %20, align 1, !tbaa !12
  %.not.i.i = icmp eq i8 %23, 0
  br i1 %.not.i.i, label %.critedge.i.i, label %.lr.ph.i.i, !llvm.loop !32

.critedge.i.i:                                    ; preds = %19
  %24 = icmp eq i32 %22, 2147483647
  br i1 %24, label %42, label %.critedge.i.thread.i

.critedge.thread.i.i:                             ; preds = %.lr.ph.i.i
  %25 = icmp eq i32 %.029.i.i, 2147483647
  br i1 %25, label %42, label %_ZN2cv8tinyxml27XMLUtil11StringEqualEPKcS3_i.exit.i

.critedge.i.thread.i:                             ; preds = %.critedge.i.i, %.preheader.i.i
  %.016.lcssa.i24.i = phi ptr [ %21, %.critedge.i.i ], [ @.str.4, %.preheader.i.i ]
  %26 = load i8, ptr %.016.lcssa.i24.i, align 1, !tbaa !12
  %27 = icmp eq i8 %26, 0
  br i1 %27, label %42, label %_ZN2cv8tinyxml27XMLUtil11StringEqualEPKcS3_i.exit.i

_ZN2cv8tinyxml27XMLUtil11StringEqualEPKcS3_i.exit.i: ; preds = %.critedge.i.thread.i, %.critedge.thread.i.i
  %28 = icmp eq ptr %5, @.str.5
  br i1 %28, label %42, label %.preheader.i7.i

.preheader.i7.i:                                  ; preds = %_ZN2cv8tinyxml27XMLUtil11StringEqualEPKcS3_i.exit.i
  br i1 %.not26.i.i, label %.critedge.i18.thread.i, label %.lr.ph.i9.i

.lr.ph.i9.i:                                      ; preds = %.preheader.i7.i, %33
  %29 = phi i8 [ %37, %33 ], [ %14, %.preheader.i7.i ]
  %.029.i10.i = phi i32 [ %36, %33 ], [ 0, %.preheader.i7.i ]
  %.01628.i11.i = phi ptr [ %35, %33 ], [ @.str.5, %.preheader.i7.i ]
  %.01727.i12.i = phi ptr [ %34, %33 ], [ %5, %.preheader.i7.i ]
  %30 = load i8, ptr %.01628.i11.i, align 1, !tbaa !12
  %31 = icmp eq i8 %29, %30
  %32 = icmp ne i32 %.029.i10.i, 2147483647
  %or.cond23.i13.i = select i1 %31, i1 %32, i1 false
  br i1 %or.cond23.i13.i, label %33, label %.critedge.thread.i14.i

33:                                               ; preds = %.lr.ph.i9.i
  %34 = getelementptr inbounds nuw i8, ptr %.01727.i12.i, i64 1
  %35 = getelementptr inbounds nuw i8, ptr %.01628.i11.i, i64 1
  %36 = add nuw nsw i32 %.029.i10.i, 1
  %37 = load i8, ptr %34, align 1, !tbaa !12
  %.not.i17.i = icmp eq i8 %37, 0
  br i1 %.not.i17.i, label %.critedge.i18.i, label %.lr.ph.i9.i, !llvm.loop !32

.critedge.i18.i:                                  ; preds = %33
  %38 = icmp eq i32 %36, 2147483647
  br i1 %38, label %42, label %.critedge.i18.thread.i

.critedge.thread.i14.i:                           ; preds = %.lr.ph.i9.i
  %39 = icmp eq i32 %.029.i10.i, 2147483647
  br i1 %39, label %42, label %_ZN2cv8tinyxml27XMLUtil6ToBoolEPKcPb.exit.thread

.critedge.i18.thread.i:                           ; preds = %.critedge.i18.i, %.preheader.i7.i
  %.016.lcssa.i1928.i = phi ptr [ %35, %.critedge.i18.i ], [ @.str.5, %.preheader.i7.i ]
  %40 = load i8, ptr %.016.lcssa.i1928.i, align 1, !tbaa !12
  %41 = icmp eq i8 %40, 0
  br i1 %41, label %42, label %_ZN2cv8tinyxml27XMLUtil6ToBoolEPKcPb.exit.thread

42:                                               ; preds = %.critedge.i18.thread.i, %.critedge.thread.i14.i, %.critedge.i18.i, %_ZN2cv8tinyxml27XMLUtil11StringEqualEPKcS3_i.exit.i, %.critedge.i.thread.i, %.critedge.thread.i.i, %.critedge.i.i, %12, %8
  %.sink.i = phi i8 [ %11, %8 ], [ 1, %12 ], [ 1, %.critedge.i.thread.i ], [ 1, %.critedge.i.i ], [ 1, %.critedge.thread.i.i ], [ 0, %_ZN2cv8tinyxml27XMLUtil11StringEqualEPKcS3_i.exit.i ], [ 0, %.critedge.i18.thread.i ], [ 0, %.critedge.i18.i ], [ 0, %.critedge.thread.i14.i ]
  store i8 %.sink.i, ptr %1, align 1, !tbaa !30
  br label %_ZN2cv8tinyxml27XMLUtil6ToBoolEPKcPb.exit.thread

_ZN2cv8tinyxml27XMLUtil6ToBoolEPKcPb.exit.thread: ; preds = %.critedge.i18.thread.i, %.critedge.thread.i14.i, %42
  %43 = phi i32 [ 0, %42 ], [ 2, %.critedge.thread.i14.i ], [ 2, %.critedge.i18.thread.i ]
  call void @llvm.lifetime.end.p0(i64 4, ptr nonnull %3) #24
  ret i32 %43
}